; Function Attrs: nounwind uwtable
define double @N_VMaxNorm_Serial(ptr noundef readonly captures(none) %0) #9 {
  %2 = load ptr, ptr %0, align 8, !tbaa !39
  %3 = load i64, ptr %2, align 8, !tbaa !32
  %4 = getelementptr inbounds nuw i8, ptr %2, i64 16
  %5 = load ptr, ptr %4, align 8, !tbaa !38
  %6 = icmp sgt i64 %3, 0
  br i1 %6, label %.lr.ph, label %._crit_edge

.lr.ph:                                           ; preds = %1, %14
  %.012 = phi double [ %.1, %14 ], [ 0.000000e+00, %1 ]
  %.01011 = phi i64 [ %15, %14 ], [ 0, %1 ]
  %7 = getelementptr inbounds nuw double, ptr %5, i64 %.01011
  %8 = load double, ptr %7, align 8, !tbaa !44
  %9 = tail call double @SUNRabs(double noundef %8) #18
  %10 = fcmp ogt double %9, %.012
  br i1 %10, label %11, label %14

11:                                               ; preds = %.lr.ph
  %12 = load double, ptr %7, align 8, !tbaa !44
  %13 = tail call double @SUNRabs(double noundef %12) #18
  br label %14

14:                                               ; preds = %.lr.ph, %11
  %.1 = phi double [ %13, %11 ], [ %.012, %.lr.ph ]
  %15 = add nuw nsw i64 %.01011, 1
  %exitcond.not = icmp eq i64 %15, %3
  br i1 %exitcond.not, label %._crit_edge, label %.lr.ph, !llvm.loop !68

._crit_edge:                                      ; preds = %14, %1
  %.0.lcssa = phi double [ 0.000000e+00, %1 ], [ %.1, %14 ]
  ret double %.0.lcssa
}